; Function Attrs: mustprogress uwtable
define internal void @_ZNK19OpenColorIO_v2_4dev12_GLOBAL__N_18LookNoOp5cloneEv(ptr noalias nocapture writeonly sret(%"class.std::shared_ptr") align 8 %agg.result, ptr noundef nonnull align 8 dereferenceable(56) %this) unnamed_addr #3 align 2 personality ptr @__gxx_personality_v0 {
_ZNSt10shared_ptrIN19OpenColorIO_v2_4dev12_GLOBAL__N_18LookNoOpEED2Ev.exit:
  %ref.tmp = alloca %"class.std::shared_ptr.31", align 16
  %m_look = getelementptr inbounds i8, ptr %this, i64 24
  call fastcc void @_ZSt11make_sharedIN19OpenColorIO_v2_4dev12_GLOBAL__N_18LookNoOpEJRKNSt7__cxx1112basic_stringIcSt11char_traitsIcESaIcEEEEESt10shared_ptrINSt9enable_ifIXntsr8is_arrayIT_EE5valueESD_E4typeEEDpOT0_(ptr noalias nonnull align 8 %ref.tmp, ptr noundef nonnull align 8 dereferenceable(32) %m_look)
  %0 = load <2 x ptr>, ptr %ref.tmp, align 16
  store <2 x ptr> %0, ptr %agg.result, align 8
  ret void
}